target datalayout = "e-m:e-p270:32:32-p271:32:32-p272:64:64-i64:64-i128:128-f80:128-n8:16:32:64-S128"
target triple = "x86_64-pc-linux-gnu"

@.str.20 = private unnamed_addr constant [53 x i8] c"Clamonacc: unable to start clamonacc. (bad context)\0A\00", align 1

; Function Attrs: nounwind uwtable
define dso_local i32 @onas_start_eloop(ptr noundef %0) #0 {
  %2 = alloca i32, align 4
  %3 = alloca ptr, align 8
  %4 = alloca i32, align 4
  %5 = alloca i32, align 4
  store ptr %0, ptr %3, align 8, !tbaa !31
  call void @llvm.lifetime.start.p0(i64 4, ptr %4) #9
  store i32 0, ptr %4, align 4, !tbaa !4
  %6 = load ptr, ptr %3, align 8, !tbaa !31
  %7 = icmp ne ptr %6, null
  br i1 %7, label %8, label %12

8:                                                ; preds = %1
  %9 = load ptr, ptr %3, align 8, !tbaa !31
  %10 = load ptr, ptr %9, align 8, !tbaa !11
  %11 = icmp ne ptr %10, null
  br i1 %11, label %13, label %12

12:                                               ; preds = %8, %1
  call void (i32, ptr, ...) @mprintf(i32 noundef 5, ptr noundef @.str.20)
  store i32 3, ptr %2, align 4
  store i32 1, ptr %5, align 4
  br label %17

13:                                               ; preds = %8
  %14 = load ptr, ptr %3, align 8, !tbaa !31
  %15 = call i32 @onas_fan_eloop(ptr noundef %14)
  store i32 %15, ptr %4, align 4, !tbaa !4
  %16 = load i32, ptr %4, align 4, !tbaa !4
  store i32 %16, ptr %2, align 4
  store i32 1, ptr %5, align 4
  br label %17

17:                                               ; preds = %13, %12
  call void @llvm.lifetime.end.p0(i64 4, ptr %4) #9
  %18 = load i32, ptr %2, align 4
  ret i32 %18
}