; Function Attrs: nounwind uwtable
define dso_local i32 @onas_start_eloop(ptr noundef %0) local_unnamed_addr #0 {
  %.not = icmp eq ptr %0, null
  br i1 %.not, label %4, label %2

2:                                                ; preds = %1
  %3 = load ptr, ptr %0, align 8, !tbaa !4
  %.not5 = icmp eq ptr %3, null
  br i1 %.not5, label %4, label %5

4:                                                ; preds = %2, %1
  tail call void (i32, ptr, ...) @mprintf(i32 noundef 5, ptr noundef nonnull @.str.20) #12
  br label %7

5:                                                ; preds = %2
  %6 = tail call i32 @onas_fan_eloop(ptr noundef nonnull %0) #12
  br label %7

7:                                                ; preds = %5, %4
  %.0 = phi i32 [ %6, %5 ], [ 3, %4 ]
  ret i32 %.0
}